target datalayout = "e-m:e-p270:32:32-p271:32:32-p272:64:64-i64:64-i128:128-f80:128-n8:16:32:64-S128"
target triple = "x86_64-pc-linux-gnu"

%struct._zend_executor_globals = type { %struct._zval_struct, %struct._zval_struct, [32 x ptr], ptr, ptr, %struct._zend_array, %struct._zend_array, ptr, i32, i32, ptr, ptr, ptr, ptr, ptr, ptr, i64, ptr, ptr, i32, i32, i64, i32, i32, i32, i8, i8, %struct.zend_atomic_bool_s, %struct.zend_atomic_bool_s, ptr, i64, ptr, ptr, %struct._zend_array, %struct._zend_array, i32, i8, %struct._zval_struct, %struct._zval_struct, %struct._zend_stack, %struct._zend_stack, %struct._zend_stack, ptr, i32, i32, i64, ptr, ptr, ptr, %struct._zend_objects_store, ptr, ptr, ptr, [3 x %struct._zend_op], ptr, i8, i8, i64, i32, i32, ptr, [16 x %struct._HashTableIterator], ptr, %union._zend_function, %struct._zend_op, %struct._zend_array, i64, %struct.zend_get_gc_buffer, ptr, ptr, ptr, i64, i8, i32, ptr, ptr, i64, %struct._zend_call_stack, i64, i64, [6 x ptr] }
%struct.zend_atomic_bool_s = type { i8 }
%struct._zval_struct = type { %union._zend_value, %union.anon, %union.anon.2 }
%union._zend_value = type { i64 }
%union.anon = type { i32 }
%union.anon.2 = type { i32 }
%struct._zend_stack = type { i32, i32, i32, ptr }
%struct._zend_objects_store = type { ptr, i32, i32, i32 }
%struct._HashTableIterator = type { ptr, i32, i32 }
%union._zend_function = type { %struct._zend_op_array }
%struct._zend_op_array = type { i8, [3 x i8], i32, ptr, ptr, ptr, i32, i32, ptr, ptr, ptr, ptr, i32, i32, i32, i32, ptr, ptr, ptr, ptr, ptr, i32, i32, ptr, ptr, ptr, i32, i32, i32, i32, ptr, ptr, [6 x ptr] }
%struct._zend_op = type { ptr, %union._znode_op, %union._znode_op, %union._znode_op, i32, i32, i8, i8, i8, i8 }
%union._znode_op = type { i32 }
%struct._zend_array = type { %struct._zend_refcounted_h, %union.anon.4, i32, %union.anon.6, i32, i32, i32, i32, i64, ptr }
%struct._zend_refcounted_h = type { i32, %union.anon.3 }
%union.anon.3 = type { i32 }
%union.anon.4 = type { i32 }
%union.anon.6 = type { ptr }
%struct.zend_get_gc_buffer = type { ptr, ptr, ptr }
%struct._zend_call_stack = type { ptr, i64 }
%struct._zend_execute_data = type { ptr, ptr, ptr, ptr, %struct._zval_struct, ptr, ptr, ptr, ptr }
%struct._spl_heap_object = type { ptr, i32, ptr, ptr, %struct._zend_object }
%struct._zend_object = type { %struct._zend_refcounted_h, i32, ptr, ptr, ptr, [1 x %struct._zval_struct] }
%struct._spl_ptr_heap = type { ptr, ptr, ptr, ptr, i32, i32, i64, i64 }
%struct.anon.0 = type { i8, i8, %union.anon.1 }
%union.anon.1 = type { i16 }

@executor_globals = external global %struct._zend_executor_globals, align 8
@spl_ce_RuntimeException = external global ptr, align 8
@.str = private unnamed_addr constant [58 x i8] c"Heap is corrupted, heap properties are no longer ensured.\00", align 1

; Function Attrs: nounwind uwtable
define internal ptr @spl_heap_from_obj(ptr noundef %0) #0 {
  %2 = alloca ptr, align 8
  store ptr %0, ptr %2, align 8
  %3 = load ptr, ptr %2, align 8
  %4 = getelementptr inbounds i8, ptr %3, i64 -32
  ret ptr %4
}

; Function Attrs: nounwind uwtable
define hidden void @zim_SplHeap_insert(ptr noundef %0, ptr noundef %1) #0 {
  %3 = alloca ptr, align 8
  %4 = alloca ptr, align 8
  %5 = alloca ptr, align 8
  %6 = alloca ptr, align 8
  %7 = alloca ptr, align 8
  %8 = alloca i8, align 1
  %9 = alloca ptr, align 8
  %10 = alloca ptr, align 8
  %11 = alloca ptr, align 8
  %12 = alloca ptr, align 8
  %13 = alloca i32, align 4
  %14 = alloca i32, align 4
  %15 = alloca i32, align 4
  %16 = alloca i32, align 4
  %17 = alloca i32, align 4
  %18 = alloca ptr, align 8
  %19 = alloca ptr, align 8
  %20 = alloca i32, align 4
  %21 = alloca ptr, align 8
  %22 = alloca i8, align 1
  %23 = alloca i8, align 1
  %24 = alloca i32, align 4
  store ptr %0, ptr %9, align 8
  store ptr %1, ptr %10, align 8
  br label %25

25:                                               ; preds = %2
  store i32 0, ptr %13, align 4
  store i32 1, ptr %14, align 4
  store i32 1, ptr %15, align 4
  %26 = load ptr, ptr %9, align 8
  %27 = getelementptr inbounds %struct._zend_execute_data, ptr %26, i32 0, i32 4
  %28 = getelementptr inbounds %struct._zval_struct, ptr %27, i32 0, i32 2
  %29 = load i32, ptr %28, align 4
  store i32 %29, ptr %16, align 4
  store i32 0, ptr %17, align 4
  store ptr null, ptr %19, align 8
  store i32 0, ptr %20, align 4
  store ptr null, ptr %21, align 8
  store i8 0, ptr %22, align 1
  store i8 0, ptr %23, align 1
  store i32 0, ptr %24, align 4
  br label %30

30:                                               ; preds = %25
  %31 = load i32, ptr %16, align 4
  %32 = load i32, ptr %14, align 4
  %33 = icmp ult i32 %31, %32
  %34 = xor i1 %33, true
  %35 = xor i1 %34, true
  %36 = zext i1 %35 to i32
  %37 = sext i32 %36 to i64
  %38 = icmp ne i64 %37, 0
  br i1 %38, label %48, label %39

39:                                               ; preds = %30
  %40 = load i32, ptr %16, align 4
  %41 = load i32, ptr %15, align 4
  %42 = icmp ugt i32 %40, %41
  %43 = xor i1 %42, true
  %44 = xor i1 %43, true
  %45 = zext i1 %44 to i32
  %46 = sext i32 %45 to i64
  %47 = icmp ne i64 %46, 0
  br i1 %47, label %48, label %51

48:                                               ; preds = %39, %30
  %49 = load i32, ptr %14, align 4
  %50 = load i32, ptr %15, align 4
  call void @zend_wrong_parameters_count_error(i32 noundef %49, i32 noundef %50)
  store i32 1, ptr %24, align 4
  br label %117

51:                                               ; preds = %39
  %52 = load ptr, ptr %9, align 8
  %53 = getelementptr inbounds %struct._zval_struct, ptr %52, i64 4
  store ptr %53, ptr %18, align 8
  %54 = load i32, ptr %17, align 4
  %55 = add i32 %54, 1
  store i32 %55, ptr %17, align 4
  %56 = load i32, ptr %17, align 4
  %57 = load i32, ptr %14, align 4
  %58 = icmp ule i32 %56, %57
  br i1 %58, label %64, label %59

59:                                               ; preds = %51
  %60 = load i8, ptr %23, align 1
  %61 = trunc i8 %60 to i1
  %62 = zext i1 %61 to i32
  %63 = icmp eq i32 %62, 1
  br label %64

64:                                               ; preds = %59, %51
  %65 = phi i1 [ true, %51 ], [ %63, %59 ]
  call void @llvm.assume(i1 %65)
  %66 = load i32, ptr %17, align 4
  %67 = load i32, ptr %14, align 4
  %68 = icmp ugt i32 %66, %67
  br i1 %68, label %74, label %69

69:                                               ; preds = %64
  %70 = load i8, ptr %23, align 1
  %71 = trunc i8 %70 to i1
  %72 = zext i1 %71 to i32
  %73 = icmp eq i32 %72, 0
  br label %74

74:                                               ; preds = %69, %64
  %75 = phi i1 [ true, %64 ], [ %73, %69 ]
  call void @llvm.assume(i1 %75)
  %76 = load i8, ptr %23, align 1
  %77 = trunc i8 %76 to i1
  br i1 %77, label %78, label %89

78:                                               ; preds = %74
  %79 = load i32, ptr %17, align 4
  %80 = load i32, ptr %16, align 4
  %81 = icmp ugt i32 %79, %80
  %82 = xor i1 %81, true
  %83 = xor i1 %82, true
  %84 = zext i1 %83 to i32
  %85 = sext i32 %84 to i64
  %86 = icmp ne i64 %85, 0
  br i1 %86, label %87, label %88

87:                                               ; preds = %78
  br label %117

88:                                               ; preds = %78
  br label %89

89:                                               ; preds = %88, %74
  %90 = load ptr, ptr %18, align 8
  %91 = getelementptr inbounds %struct._zval_struct, ptr %90, i32 1
  store ptr %91, ptr %18, align 8
  %92 = load ptr, ptr %18, align 8
  store ptr %92, ptr %19, align 8
  %93 = load ptr, ptr %19, align 8
  store ptr %93, ptr %6, align 8
  store ptr %11, ptr %7, align 8
  store i8 0, ptr %8, align 1
  %94 = load i8, ptr %8, align 1
  %95 = trunc i8 %94 to i1
  br i1 %95, label %96, label %104

96:                                               ; preds = %89
  %97 = load ptr, ptr %6, align 8
  store ptr %97, ptr %3, align 8
  %98 = load ptr, ptr %3, align 8
  %99 = getelementptr inbounds %struct._zval_struct, ptr %98, i32 0, i32 1
  %100 = load i8, ptr %99, align 8
  %101 = zext i8 %100 to i32
  %102 = icmp eq i32 %101, 1
  br i1 %102, label %103, label %104

103:                                              ; preds = %96
  br label %106

104:                                              ; preds = %96, %89
  %105 = load ptr, ptr %6, align 8
  br label %106

106:                                              ; preds = %104, %103
  %107 = phi ptr [ null, %103 ], [ %105, %104 ]
  %108 = load ptr, ptr %7, align 8
  store ptr %107, ptr %108, align 8
  %109 = load i32, ptr %17, align 4
  %110 = load i32, ptr %15, align 4
  %111 = icmp eq i32 %109, %110
  br i1 %111, label %115, label %112

112:                                              ; preds = %106
  %113 = load i32, ptr %15, align 4
  %114 = icmp eq i32 %113, -1
  br label %115

115:                                              ; preds = %112, %106
  %116 = phi i1 [ true, %106 ], [ %114, %112 ]
  call void @llvm.assume(i1 %116)
  br label %117

117:                                              ; preds = %115, %87, %48
  %118 = load i32, ptr %24, align 4
  %119 = icmp ne i32 %118, 0
  %120 = xor i1 %119, true
  %121 = xor i1 %120, true
  %122 = zext i1 %121 to i32
  %123 = sext i32 %122 to i64
  %124 = icmp ne i64 %123, 0
  br i1 %124, label %125, label %131

125:                                              ; preds = %117
  %126 = load i32, ptr %24, align 4
  %127 = load i32, ptr %17, align 4
  %128 = load ptr, ptr %21, align 8
  %129 = load i32, ptr %20, align 4
  %130 = load ptr, ptr %19, align 8
  call void @zend_wrong_parameter_error(i32 noundef %126, i32 noundef %127, ptr noundef %128, i32 noundef %129, ptr noundef %130)
  br label %186

131:                                              ; preds = %117
  br label %132

132:                                              ; preds = %131
  %133 = load ptr, ptr %9, align 8
  %134 = getelementptr inbounds %struct._zend_execute_data, ptr %133, i32 0, i32 4
  %135 = getelementptr inbounds %struct._zval_struct, ptr %134, i32 0, i32 0
  %136 = load ptr, ptr %135, align 8
  %137 = call ptr @spl_heap_from_obj(ptr noundef %136)
  store ptr %137, ptr %12, align 8
  %138 = load ptr, ptr %12, align 8
  %139 = getelementptr inbounds %struct._spl_heap_object, ptr %138, i32 0, i32 0
  %140 = load ptr, ptr %139, align 8
  %141 = getelementptr inbounds %struct._spl_ptr_heap, ptr %140, i32 0, i32 5
  %142 = load i32, ptr %141, align 4
  %143 = and i32 %142, 1
  %144 = icmp ne i32 %143, 0
  br i1 %144, label %145, label %152

145:                                              ; preds = %132
  %146 = load ptr, ptr @spl_ce_RuntimeException, align 8
  %147 = call ptr @zend_throw_exception(ptr noundef %146, ptr noundef @.str, i64 noundef 0)
  br label %148

148:                                              ; preds = %145
  %149 = load ptr, ptr getelementptr inbounds (%struct._zend_executor_globals, ptr @executor_globals, i32 0, i32 50), align 8
  %150 = icmp ne ptr %149, null
  call void @llvm.assume(i1 %150)
  br label %186

151:                                              ; No predecessors!
  br label %152

152:                                              ; preds = %151, %132
  br label %153

153:                                              ; preds = %152
  %154 = load ptr, ptr %11, align 8
  %155 = getelementptr inbounds %struct._zval_struct, ptr %154, i32 0, i32 1
  %156 = getelementptr inbounds %struct.anon.0, ptr %155, i32 0, i32 1
  %157 = load i8, ptr %156, align 1
  %158 = zext i8 %157 to i32
  %159 = icmp ne i32 %158, 0
  br i1 %159, label %160, label %173

160:                                              ; preds = %153
  %161 = load ptr, ptr %11, align 8
  store ptr %161, ptr %5, align 8
  %162 = load ptr, ptr %5, align 8
  %163 = getelementptr inbounds %struct._zval_struct, ptr %162, i32 0, i32 1
  %164 = getelementptr inbounds %struct.anon.0, ptr %163, i32 0, i32 1
  %165 = load i8, ptr %164, align 1
  %166 = zext i8 %165 to i32
  %167 = icmp ne i32 %166, 0
  call void @llvm.assume(i1 %167)
  %168 = load ptr, ptr %5, align 8
  %169 = load ptr, ptr %168, align 8
  store ptr %169, ptr %4, align 8
  %170 = load ptr, ptr %4, align 8
  %171 = load i32, ptr %170, align 4
  %172 = add i32 %171, 1
  store i32 %172, ptr %170, align 4
  br label %173

173:                                              ; preds = %160, %153
  br label %174

174:                                              ; preds = %173
  %175 = load ptr, ptr %12, align 8
  %176 = getelementptr inbounds %struct._spl_heap_object, ptr %175, i32 0, i32 0
  %177 = load ptr, ptr %176, align 8
  %178 = load ptr, ptr %11, align 8
  %179 = load ptr, ptr %9, align 8
  %180 = getelementptr inbounds %struct._zend_execute_data, ptr %179, i32 0, i32 4
  call void @spl_ptr_heap_insert(ptr noundef %177, ptr noundef %178, ptr noundef %180)
  br label %181

181:                                              ; preds = %174
  br label %182

182:                                              ; preds = %181
  %183 = load ptr, ptr %10, align 8
  %184 = getelementptr inbounds %struct._zval_struct, ptr %183, i32 0, i32 1
  store i32 3, ptr %184, align 8
  br label %185

185:                                              ; preds = %182
  br label %186

186:                                              ; preds = %185, %148, %125
  ret void
}