; Function Attrs: nounwind uwtable
define hidden void @zim_SplHeap_insert(ptr noundef %0, ptr nocapture noundef writeonly %1) #0 {
  %3 = getelementptr inbounds i8, ptr %0, i64 32
  %4 = getelementptr inbounds i8, ptr %0, i64 44
  %5 = load i32, ptr %4, align 4
  %cond = icmp eq i32 %5, 1
  br i1 %cond, label %7, label %6

6:                                                ; preds = %2
  tail call void @zend_wrong_parameters_count_error(i32 noundef 1, i32 noundef 1) #14
  tail call void @zend_wrong_parameter_error(i32 noundef 1, i32 noundef 0, ptr noundef null, i32 noundef 0, ptr noundef null) #14
  br label %30

7:                                                ; preds = %2
  %8 = getelementptr inbounds i8, ptr %0, i64 80
  %9 = load ptr, ptr %3, align 8
  %10 = getelementptr inbounds i8, ptr %9, i64 -32
  %11 = load ptr, ptr %10, align 8
  %12 = getelementptr inbounds i8, ptr %11, i64 36
  %13 = load i32, ptr %12, align 4
  %14 = and i32 %13, 1
  %.not49 = icmp eq i32 %14, 0
  br i1 %.not49, label %20, label %15

15:                                               ; preds = %7
  %16 = load ptr, ptr @spl_ce_RuntimeException, align 8
  %17 = tail call ptr @zend_throw_exception(ptr noundef %16, ptr noundef nonnull @.str, i64 noundef 0) #14
  %18 = load ptr, ptr getelementptr inbounds (%struct._zend_executor_globals, ptr @executor_globals, i64 0, i32 50), align 8
  %19 = icmp ne ptr %18, null
  tail call void @llvm.assume(i1 %19)
  br label %30

20:                                               ; preds = %7
  %21 = getelementptr inbounds i8, ptr %0, i64 89
  %22 = load i8, ptr %21, align 1
  %.not50 = icmp eq i8 %22, 0
  br i1 %.not50, label %27, label %23

23:                                               ; preds = %20
  %24 = load ptr, ptr %8, align 8
  %25 = load i32, ptr %24, align 4
  %26 = add i32 %25, 1
  store i32 %26, ptr %24, align 4
  %.pre = load ptr, ptr %10, align 8
  br label %27

27:                                               ; preds = %20, %23
  %28 = phi ptr [ %11, %20 ], [ %.pre, %23 ]
  tail call fastcc void @spl_ptr_heap_insert(ptr noundef %28, ptr noundef nonnull %8, ptr noundef nonnull %3)
  %29 = getelementptr inbounds i8, ptr %1, i64 8
  store i32 3, ptr %29, align 8
  br label %30

30:                                               ; preds = %27, %15, %6
  ret void
}